	.file	"a3.c"
	.globl	count
	.bss
	.align 4
	.type	count, @object
	.size	count, 4
count:
	.zero	4
	.text
	.globl	fun
	.type	fun, @function
fun:
.LFB2:
	.cfi_startproc
	pushq	%rbp
	.cfi_def_cfa_offset 16
	.cfi_offset 6, -16
	movq	%rsp, %rbp
	.cfi_def_cfa_register 6
	movq	%rdi, -24(%rbp)
	movl	$0, -4(%rbp)
	jmp	.L2
.L3:
	movl	count(%rip), %eax
	addl	$1, %eax
	movl	%eax, count(%rip)
	addl	$1, -4(%rbp)
.L2:
	cmpl	$999999, -4(%rbp)
	jle	.L3
	nop
	popq	%rbp
	.cfi_def_cfa 7, 8
	ret
	.cfi_endproc
.LFE2:
	.size	fun, .-fun
	.section	.rodata
.LC0:
	.string	"count = %d\n"
	.text
	.globl	main
	.type	main, @function
main:
.LFB3:
	.cfi_startproc
	pushq	%rbp
	.cfi_def_cfa_offset 16
	.cfi_offset 6, -16
	movq	%rsp, %rbp
	.cfi_def_cfa_register 6
	subq	$32, %rsp
	movq	%fs:40, %rax
	movq	%rax, -8(%rbp)
	xorl	%eax, %eax
	leaq	-24(%rbp), %rax
	movl	$0, %ecx
	movl	$fun, %edx
	movl	$0, %esi
	movq	%rax, %rdi
	call	pthread_create
	leaq	-16(%rbp), %rax
	movl	$0, %ecx
	movl	$fun, %edx
	movl	$0, %esi
	movq	%rax, %rdi
	call	pthread_create
	movq	-24(%rbp), %rax
	movl	$0, %esi
	movq	%rax, %rdi
	call	pthread_join
	movq	-16(%rbp), %rax
	movl	$0, %esi
	movq	%rax, %rdi
	call	pthread_join
	movl	count(%rip), %eax
	movl	%eax, %esi
	movl	$.LC0, %edi
	movl	$0, %eax
	call	printf
	movl	$0, %eax
	movq	-8(%rbp), %rdx
	xorq	%fs:40, %rdx
	je	.L6
	call	__stack_chk_fail
.L6:
	leave
	.cfi_def_cfa 7, 8
	ret
	.cfi_endproc
.LFE3:
	.size	main, .-main
	.ident	"GCC: (Ubuntu 5.4.0-6ubuntu1~16.04.4) 5.4.0 20160609"
	.section	.note.GNU-stack,"",@progbits
