	.text
	.file	"a50-317d481089b8c8fe83113de504472633.rs"
	.section	.text._ZN4core3fmt10ArgumentV13new17h93f48943b4a5f9d6E,"ax",@progbits
	.p2align	4, 0x90
	.type	_ZN4core3fmt10ArgumentV13new17h93f48943b4a5f9d6E,@function
_ZN4core3fmt10ArgumentV13new17h93f48943b4a5f9d6E:
	.cfi_startproc
	subq	$56, %rsp
.Lcfi0:
	.cfi_def_cfa_offset 64
	movq	%rsi, 40(%rsp)
	movq	40(%rsp), %rsi
	movq	%rdi, 16(%rsp)
	movq	%rsi, 8(%rsp)
	movq	16(%rsp), %rax
	movq	%rax, 48(%rsp)
	movq	48(%rsp), %rcx
	movq	%rcx, (%rsp)
	movq	(%rsp), %rax
	movq	%rax, 24(%rsp)
	movq	8(%rsp), %rcx
	movq	%rcx, 32(%rsp)
	movq	24(%rsp), %rax
	movq	32(%rsp), %rdx
	addq	$56, %rsp
	retq
.Lfunc_end0:
	.size	_ZN4core3fmt10ArgumentV13new17h93f48943b4a5f9d6E, .Lfunc_end0-_ZN4core3fmt10ArgumentV13new17h93f48943b4a5f9d6E
	.cfi_endproc

	.section	.text._ZN4core3fmt10ArgumentV13new17ha55f708e2430cd56E,"ax",@progbits
	.p2align	4, 0x90
	.type	_ZN4core3fmt10ArgumentV13new17ha55f708e2430cd56E,@function
_ZN4core3fmt10ArgumentV13new17ha55f708e2430cd56E:
	.cfi_startproc
	subq	$56, %rsp
.Lcfi1:
	.cfi_def_cfa_offset 64
	movq	%rsi, 40(%rsp)
	movq	40(%rsp), %rsi
	movq	%rdi, 16(%rsp)
	movq	%rsi, 8(%rsp)
	movq	16(%rsp), %rax
	movq	%rax, 48(%rsp)
	movq	48(%rsp), %rcx
	movq	%rcx, (%rsp)
	movq	(%rsp), %rax
	movq	%rax, 24(%rsp)
	movq	8(%rsp), %rcx
	movq	%rcx, 32(%rsp)
	movq	24(%rsp), %rax
	movq	32(%rsp), %rdx
	addq	$56, %rsp
	retq
.Lfunc_end1:
	.size	_ZN4core3fmt10ArgumentV13new17ha55f708e2430cd56E, .Lfunc_end1-_ZN4core3fmt10ArgumentV13new17ha55f708e2430cd56E
	.cfi_endproc

	.section	.text._ZN4core3fmt9Arguments16new_v1_formatted17ha1f8a903451d9e9cE,"ax",@progbits
	.p2align	4, 0x90
	.type	_ZN4core3fmt9Arguments16new_v1_formatted17ha1f8a903451d9e9cE,@function
_ZN4core3fmt9Arguments16new_v1_formatted17ha1f8a903451d9e9cE:
	.cfi_startproc
	subq	$16, %rsp
.Lcfi2:
	.cfi_def_cfa_offset 24
	movq	%rdi, %rax
	movq	24(%rsp), %r10
	movq	%r9, (%rsp)
	movq	%r10, 8(%rsp)
	movq	%rsi, (%rdi)
	movq	%rdx, 8(%rdi)
	movq	(%rsp), %rdx
	movq	%rdx, 16(%rdi)
	movq	8(%rsp), %rdx
	movq	%rdx, 24(%rdi)
	movq	%rcx, 32(%rdi)
	movq	%r8, 40(%rdi)
	addq	$16, %rsp
	retq
.Lfunc_end2:
	.size	_ZN4core3fmt9Arguments16new_v1_formatted17ha1f8a903451d9e9cE, .Lfunc_end2-_ZN4core3fmt9Arguments16new_v1_formatted17ha1f8a903451d9e9cE
	.cfi_endproc

	.section	".text._ZN55_$LT$$RF$$u27$a$u20$T$u20$as$u20$core..fmt..Display$GT$3fmt17h27bb0acbc3276d40E","ax",@progbits
	.p2align	4, 0x90
	.type	_ZN55_$LT$$RF$$u27$a$u20$T$u20$as$u20$core..fmt..Display$GT$3fmt17h27bb0acbc3276d40E,@function
_ZN55_$LT$$RF$$u27$a$u20$T$u20$as$u20$core..fmt..Display$GT$3fmt17h27bb0acbc3276d40E:
	.cfi_startproc
	subq	$24, %rsp
.Lcfi3:
	.cfi_def_cfa_offset 32
	movq	(%rdi), %rax
	movq	8(%rdi), %rdi
	movq	%rdi, 16(%rsp)
	movq	%rax, %rdi
	movq	16(%rsp), %rax
	movq	%rsi, 8(%rsp)
	movq	%rax, %rsi
	movq	8(%rsp), %rdx
	callq	_ZN42_$LT$str$u20$as$u20$core..fmt..Display$GT$3fmt17h6377a9d107eb7c06E@PLT
	movb	%al, 7(%rsp)
	movb	7(%rsp), %al
	andb	$1, %al
	movzbl	%al, %eax
	addq	$24, %rsp
	retq
.Lfunc_end3:
	.size	_ZN55_$LT$$RF$$u27$a$u20$T$u20$as$u20$core..fmt..Display$GT$3fmt17h27bb0acbc3276d40E, .Lfunc_end3-_ZN55_$LT$$RF$$u27$a$u20$T$u20$as$u20$core..fmt..Display$GT$3fmt17h27bb0acbc3276d40E
	.cfi_endproc

	.section	.text._ZN2a58identity17h7b8552cdf39f4421E,"ax",@progbits
	.p2align	4, 0x90
	.type	_ZN2a58identity17h7b8552cdf39f4421E,@function
_ZN2a58identity17h7b8552cdf39f4421E:
	.cfi_startproc
	movq	%rdi, %rax
	movq	%rsi, %rdx
	retq
.Lfunc_end4:
	.size	_ZN2a58identity17h7b8552cdf39f4421E, .Lfunc_end4-_ZN2a58identity17h7b8552cdf39f4421E
	.cfi_endproc

	.section	.text._ZN2a58identity17hcb51655fc312785cE,"ax",@progbits
	.p2align	4, 0x90
	.type	_ZN2a58identity17hcb51655fc312785cE,@function
_ZN2a58identity17hcb51655fc312785cE:
	.cfi_startproc
	movl	%edi, %eax
	retq
.Lfunc_end5:
	.size	_ZN2a58identity17hcb51655fc312785cE, .Lfunc_end5-_ZN2a58identity17hcb51655fc312785cE
	.cfi_endproc

	.section	.text._ZN2a54main17he35dbd6b01c63193E,"ax",@progbits
	.p2align	4, 0x90
	.type	_ZN2a54main17he35dbd6b01c63193E,@function
_ZN2a54main17he35dbd6b01c63193E:
	.cfi_startproc
	pushq	%r14
.Lcfi4:
	.cfi_def_cfa_offset 16
	pushq	%rbx
.Lcfi5:
	.cfi_def_cfa_offset 24
	subq	$184, %rsp
.Lcfi6:
	.cfi_def_cfa_offset 208
.Lcfi7:
	.cfi_offset %rbx, -24
.Lcfi8:
	.cfi_offset %r14, -16
	movl	$10, %edi
	callq	_ZN2a58identity17hcb51655fc312785cE
	movl	%eax, 68(%rsp)
	leaq	str.0(%rip), %rdi
	movl	$5, %eax
	movl	%eax, %esi
	callq	_ZN2a58identity17h7b8552cdf39f4421E
	movq	%rdx, 80(%rsp)
	movq	%rax, 72(%rsp)
	movq	_ZN4core3fmt3num52_$LT$impl$u20$core..fmt..Display$u20$for$u20$i32$GT$3fmt17h202b5941f1a05034E@GOTPCREL(%rip), %rsi
	leaq	72(%rsp), %rax
	leaq	68(%rsp), %rcx
	movq	%rcx, 168(%rsp)
	movq	%rax, 176(%rsp)
	movq	168(%rsp), %rdi
	movq	176(%rsp), %rax
	movq	%rax, 56(%rsp)
	callq	_ZN4core3fmt10ArgumentV13new17ha55f708e2430cd56E
	movq	%rax, 48(%rsp)
	movq	%rdx, 40(%rsp)
	leaq	_ZN55_$LT$$RF$$u27$a$u20$T$u20$as$u20$core..fmt..Display$GT$3fmt17h27bb0acbc3276d40E(%rip), %rsi
	movq	56(%rsp), %rdi
	callq	_ZN4core3fmt10ArgumentV13new17h93f48943b4a5f9d6E
	movq	%rax, 32(%rsp)
	movq	%rdx, 24(%rsp)
	leaq	88(%rsp), %rdi
	leaq	ref.4(%rip), %rax
	movl	$3, %ecx
	movl	%ecx, %edx
	movl	$2, %ecx
	movl	%ecx, %r8d
	leaq	136(%rsp), %rsi
	movq	48(%rsp), %r9
	movq	%r9, 136(%rsp)
	movq	40(%rsp), %r10
	movq	%r10, 144(%rsp)
	movq	32(%rsp), %r11
	movq	%r11, 152(%rsp)
	movq	24(%rsp), %rbx
	movq	%rbx, 160(%rsp)
	movq	const.6(%rip), %r14
	movq	%rsi, 16(%rsp)
	movq	%rax, %rsi
	movq	16(%rsp), %rcx
	movq	%r14, %r9
	movq	$2, (%rsp)
	callq	_ZN4core3fmt9Arguments16new_v1_formatted17ha1f8a903451d9e9cE
	leaq	88(%rsp), %rdi
	callq	_ZN3std2io5stdio6_print17hd4eae2519daee4b9E@PLT
	addq	$184, %rsp
	popq	%rbx
	popq	%r14
	retq
.Lfunc_end6:
	.size	_ZN2a54main17he35dbd6b01c63193E, .Lfunc_end6-_ZN2a54main17he35dbd6b01c63193E
	.cfi_endproc

	.section	.text.main,"ax",@progbits
	.globl	main
	.p2align	4, 0x90
	.type	main,@function
main:
	.cfi_startproc
	pushq	%rax
.Lcfi9:
	.cfi_def_cfa_offset 16
	leaq	_ZN2a54main17he35dbd6b01c63193E(%rip), %rax
	movslq	%edi, %rcx
	movq	%rax, %rdi
	movq	%rsi, (%rsp)
	movq	%rcx, %rsi
	movq	(%rsp), %rdx
	callq	_ZN3std2rt10lang_start17h7653657a1f70e5aaE@PLT
	movl	%eax, %r8d
	movl	%r8d, %eax
	popq	%rcx
	retq
.Lfunc_end7:
	.size	main, .Lfunc_end7-main
	.cfi_endproc

	.type	str.0,@object
	.section	.rodata.str.0,"a",@progbits
str.0:
	.ascii	"hello"
	.size	str.0, 5

	.type	str.1,@object
	.section	.rodata.str.1,"a",@progbits
str.1:
	.size	str.1, 0

	.type	str.2,@object
	.section	.rodata.str.2,"a",@progbits
str.2:
	.byte	44
	.size	str.2, 1

	.type	str.3,@object
	.section	.rodata.str.3,"a",@progbits
str.3:
	.byte	10
	.size	str.3, 1

	.type	ref.4,@object
	.section	.data.rel.ro.ref.4,"aw",@progbits
	.p2align	3
ref.4:
	.quad	str.1
	.quad	0
	.quad	str.2
	.quad	1
	.quad	str.3
	.quad	1
	.size	ref.4, 48

	.type	ref.5,@object
	.section	.rodata.ref.5,"a",@progbits
	.p2align	3
ref.5:
	.quad	1
	.quad	0
	.quad	3
	.zero	8
	.quad	3
	.zero	8
	.long	32
	.long	0
	.byte	3
	.zero	7
	.quad	1
	.quad	1
	.quad	3
	.zero	8
	.quad	3
	.zero	8
	.long	32
	.long	0
	.byte	3
	.zero	7
	.size	ref.5, 128

	.type	const.6,@object
	.section	.data.rel.ro.const.6,"aw",@progbits
	.p2align	3
const.6:
	.quad	ref.5
	.size	const.6, 8


	.section	".note.GNU-stack","",@progbits
